; Function Attrs: nounwind uwtable
define void @Llb_Nonlin4Deref(ptr noundef %0, ptr noundef captures(none) %1) local_unnamed_addr #0 {
  %3 = getelementptr i8, ptr %1, i64 4
  %.val8 = load i32, ptr %3, align 4, !tbaa !23
  %4 = icmp sgt i32 %.val8, 0
  br i1 %4, label %.lr.ph, label %.critedge

.lr.ph:                                           ; preds = %2
  %5 = getelementptr i8, ptr %1, i64 8
  br label %6

6:                                                ; preds = %.lr.ph, %6
  %indvars.iv = phi i64 [ 0, %.lr.ph ], [ %indvars.iv.next, %6 ]
  %.val7 = load ptr, ptr %5, align 8, !tbaa !25
  %7 = getelementptr inbounds nuw ptr, ptr %.val7, i64 %indvars.iv
  %8 = load ptr, ptr %7, align 8, !tbaa !26
  tail call void @Cudd_RecursiveDeref(ptr noundef %0, ptr noundef %8) #18
  %indvars.iv.next = add nuw nsw i64 %indvars.iv, 1
  %.val = load i32, ptr %3, align 4, !tbaa !23
  %9 = sext i32 %.val to i64
  %10 = icmp slt i64 %indvars.iv.next, %9
  br i1 %10, label %6, label %.critedge, !llvm.loop !87

.critedge:                                        ; preds = %6, %2
  %11 = getelementptr inbounds nuw i8, ptr %1, i64 8
  %12 = load ptr, ptr %11, align 8, !tbaa !25
  %.not.i = icmp eq ptr %12, null
  br i1 %.not.i, label %Vec_PtrFree.exit, label %13

13:                                               ; preds = %.critedge
  tail call void @free(ptr noundef nonnull %12) #18
  br label %Vec_PtrFree.exit

Vec_PtrFree.exit:                                 ; preds = %.critedge, %13
  tail call void @free(ptr noundef nonnull %1) #18
  ret void
}